target datalayout = "e-m:e-p270:32:32-p271:32:32-p272:64:64-i64:64-i128:128-f80:128-n8:16:32:64-S128"
target triple = "x86_64-pc-linux-gnu"

%struct.SDL_BlitInfo = type { ptr, ptr, i32, i32, i32, i32, ptr, ptr, i32, i32, i32, i32, ptr, ptr, ptr, ptr, ptr, ptr, i32, i32, i8, i8, i8, i8 }

; Function Attrs: nounwind uwtable
define internal void @SDL_Blit_XRGB8888_ABGR8888_Blend_Scale(ptr noundef %0) #0 {
  %2 = alloca ptr, align 8
  %3 = alloca i32, align 4
  %4 = alloca i32, align 4
  %5 = alloca i32, align 4
  %6 = alloca i32, align 4
  %7 = alloca i32, align 4
  %8 = alloca i32, align 4
  %9 = alloca i32, align 4
  %10 = alloca i32, align 4
  %11 = alloca i32, align 4
  %12 = alloca i32, align 4
  %13 = alloca i64, align 8
  %14 = alloca i64, align 8
  %15 = alloca i64, align 8
  %16 = alloca i64, align 8
  %17 = alloca i64, align 8
  %18 = alloca i64, align 8
  %19 = alloca ptr, align 8
  %20 = alloca ptr, align 8
  %21 = alloca i32, align 4
  %22 = alloca i16, align 2
  %23 = alloca i16, align 2
  %24 = alloca i16, align 2
  %25 = alloca i16, align 2
  %26 = alloca i16, align 2
  %27 = alloca i16, align 2
  store ptr %0, ptr %2, align 8
  call void @llvm.lifetime.start.p0(i64 4, ptr %3) #2
  %28 = load ptr, ptr %2, align 8
  %29 = getelementptr inbounds nuw %struct.SDL_BlitInfo, ptr %28, i32 0, i32 18
  %30 = load i32, ptr %29, align 8
  store i32 %30, ptr %3, align 4
  call void @llvm.lifetime.start.p0(i64 4, ptr %4) #2
  call void @llvm.lifetime.start.p0(i64 4, ptr %5) #2
  call void @llvm.lifetime.start.p0(i64 4, ptr %6) #2
  call void @llvm.lifetime.start.p0(i64 4, ptr %7) #2
  call void @llvm.lifetime.start.p0(i64 4, ptr %8) #2
  call void @llvm.lifetime.start.p0(i64 4, ptr %9) #2
  call void @llvm.lifetime.start.p0(i64 4, ptr %10) #2
  call void @llvm.lifetime.start.p0(i64 4, ptr %11) #2
  call void @llvm.lifetime.start.p0(i64 4, ptr %12) #2
  call void @llvm.lifetime.start.p0(i64 8, ptr %13) #2
  call void @llvm.lifetime.start.p0(i64 8, ptr %14) #2
  call void @llvm.lifetime.start.p0(i64 8, ptr %15) #2
  call void @llvm.lifetime.start.p0(i64 8, ptr %16) #2
  call void @llvm.lifetime.start.p0(i64 8, ptr %17) #2
  call void @llvm.lifetime.start.p0(i64 8, ptr %18) #2
  %31 = load ptr, ptr %2, align 8
  %32 = getelementptr inbounds nuw %struct.SDL_BlitInfo, ptr %31, i32 0, i32 3
  %33 = load i32, ptr %32, align 4
  %34 = sext i32 %33 to i64
  %35 = shl i64 %34, 16
  %36 = load ptr, ptr %2, align 8
  %37 = getelementptr inbounds nuw %struct.SDL_BlitInfo, ptr %36, i32 0, i32 9
  %38 = load i32, ptr %37, align 4
  %39 = sext i32 %38 to i64
  %40 = udiv i64 %35, %39
  store i64 %40, ptr %17, align 8
  %41 = load ptr, ptr %2, align 8
  %42 = getelementptr inbounds nuw %struct.SDL_BlitInfo, ptr %41, i32 0, i32 2
  %43 = load i32, ptr %42, align 8
  %44 = sext i32 %43 to i64
  %45 = shl i64 %44, 16
  %46 = load ptr, ptr %2, align 8
  %47 = getelementptr inbounds nuw %struct.SDL_BlitInfo, ptr %46, i32 0, i32 8
  %48 = load i32, ptr %47, align 8
  %49 = sext i32 %48 to i64
  %50 = udiv i64 %45, %49
  store i64 %50, ptr %18, align 8
  %51 = load i64, ptr %17, align 8
  %52 = udiv i64 %51, 2
  store i64 %52, ptr %15, align 8
  br label %53

53:                                               ; preds = %298, %1
  %54 = load ptr, ptr %2, align 8
  %55 = getelementptr inbounds nuw %struct.SDL_BlitInfo, ptr %54, i32 0, i32 9
  %56 = load i32, ptr %55, align 4
  %57 = add nsw i32 %56, -1
  store i32 %57, ptr %55, align 4
  %58 = icmp ne i32 %56, 0
  br i1 %58, label %59, label %310

59:                                               ; preds = %53
  call void @llvm.lifetime.start.p0(i64 8, ptr %19) #2
  store ptr null, ptr %19, align 8
  call void @llvm.lifetime.start.p0(i64 8, ptr %20) #2
  %60 = load ptr, ptr %2, align 8
  %61 = getelementptr inbounds nuw %struct.SDL_BlitInfo, ptr %60, i32 0, i32 7
  %62 = load ptr, ptr %61, align 8
  store ptr %62, ptr %20, align 8
  call void @llvm.lifetime.start.p0(i64 4, ptr %21) #2
  %63 = load ptr, ptr %2, align 8
  %64 = getelementptr inbounds nuw %struct.SDL_BlitInfo, ptr %63, i32 0, i32 8
  %65 = load i32, ptr %64, align 8
  store i32 %65, ptr %21, align 4
  %66 = load i64, ptr %18, align 8
  %67 = udiv i64 %66, 2
  store i64 %67, ptr %16, align 8
  %68 = load i64, ptr %15, align 8
  %69 = lshr i64 %68, 16
  store i64 %69, ptr %13, align 8
  br label %70

70:                                               ; preds = %280, %59
  %71 = load i32, ptr %21, align 4
  %72 = add nsw i32 %71, -1
  store i32 %72, ptr %21, align 4
  %73 = icmp ne i32 %71, 0
  br i1 %73, label %74, label %298

74:                                               ; preds = %70
  %75 = load i64, ptr %16, align 8
  %76 = lshr i64 %75, 16
  store i64 %76, ptr %14, align 8
  %77 = load ptr, ptr %2, align 8
  %78 = getelementptr inbounds nuw %struct.SDL_BlitInfo, ptr %77, i32 0, i32 1
  %79 = load ptr, ptr %78, align 8
  %80 = load i64, ptr %13, align 8
  %81 = load ptr, ptr %2, align 8
  %82 = getelementptr inbounds nuw %struct.SDL_BlitInfo, ptr %81, i32 0, i32 4
  %83 = load i32, ptr %82, align 8
  %84 = sext i32 %83 to i64
  %85 = mul i64 %80, %84
  %86 = getelementptr inbounds nuw i8, ptr %79, i64 %85
  %87 = load i64, ptr %14, align 8
  %88 = mul i64 %87, 4
  %89 = getelementptr inbounds nuw i8, ptr %86, i64 %88
  store ptr %89, ptr %19, align 8
  %90 = load ptr, ptr %19, align 8
  %91 = load i32, ptr %90, align 4
  store i32 %91, ptr %4, align 4
  %92 = load i32, ptr %4, align 4
  %93 = lshr i32 %92, 16
  %94 = trunc i32 %93 to i8
  %95 = zext i8 %94 to i32
  store i32 %95, ptr %5, align 4
  %96 = load i32, ptr %4, align 4
  %97 = lshr i32 %96, 8
  %98 = trunc i32 %97 to i8
  %99 = zext i8 %98 to i32
  store i32 %99, ptr %6, align 4
  %100 = load i32, ptr %4, align 4
  %101 = trunc i32 %100 to i8
  %102 = zext i8 %101 to i32
  store i32 %102, ptr %7, align 4
  %103 = load ptr, ptr %20, align 8
  %104 = load i32, ptr %103, align 4
  store i32 %104, ptr %8, align 4
  %105 = load i32, ptr %8, align 4
  %106 = lshr i32 %105, 16
  %107 = trunc i32 %106 to i8
  %108 = zext i8 %107 to i32
  store i32 %108, ptr %11, align 4
  %109 = load i32, ptr %8, align 4
  %110 = lshr i32 %109, 8
  %111 = trunc i32 %110 to i8
  %112 = zext i8 %111 to i32
  store i32 %112, ptr %10, align 4
  %113 = load i32, ptr %8, align 4
  %114 = trunc i32 %113 to i8
  %115 = zext i8 %114 to i32
  store i32 %115, ptr %9, align 4
  %116 = load i32, ptr %8, align 4
  %117 = lshr i32 %116, 24
  %118 = trunc i32 %117 to i8
  %119 = zext i8 %118 to i32
  store i32 %119, ptr %12, align 4
  %120 = load i32, ptr %3, align 4
  %121 = and i32 %120, 1008
  switch i32 %121, label %280 [
    i32 16, label %122
    i32 32, label %126
    i32 64, label %130
    i32 128, label %130
    i32 256, label %152
    i32 512, label %216
  ]

122:                                              ; preds = %74
  %123 = load i32, ptr %5, align 4
  store i32 %123, ptr %9, align 4
  %124 = load i32, ptr %6, align 4
  store i32 %124, ptr %10, align 4
  %125 = load i32, ptr %7, align 4
  store i32 %125, ptr %11, align 4
  store i32 255, ptr %12, align 4
  br label %280

126:                                              ; preds = %74
  %127 = load i32, ptr %5, align 4
  store i32 %127, ptr %9, align 4
  %128 = load i32, ptr %6, align 4
  store i32 %128, ptr %10, align 4
  %129 = load i32, ptr %7, align 4
  store i32 %129, ptr %11, align 4
  store i32 255, ptr %12, align 4
  br label %280

130:                                              ; preds = %74, %74
  %131 = load i32, ptr %5, align 4
  %132 = load i32, ptr %9, align 4
  %133 = add i32 %131, %132
  store i32 %133, ptr %9, align 4
  %134 = load i32, ptr %9, align 4
  %135 = icmp ugt i32 %134, 255
  br i1 %135, label %136, label %137

136:                                              ; preds = %130
  store i32 255, ptr %9, align 4
  br label %137

137:                                              ; preds = %136, %130
  %138 = load i32, ptr %6, align 4
  %139 = load i32, ptr %10, align 4
  %140 = add i32 %138, %139
  store i32 %140, ptr %10, align 4
  %141 = load i32, ptr %10, align 4
  %142 = icmp ugt i32 %141, 255
  br i1 %142, label %143, label %144

143:                                              ; preds = %137
  store i32 255, ptr %10, align 4
  br label %144

144:                                              ; preds = %143, %137
  %145 = load i32, ptr %7, align 4
  %146 = load i32, ptr %11, align 4
  %147 = add i32 %145, %146
  store i32 %147, ptr %11, align 4
  %148 = load i32, ptr %11, align 4
  %149 = icmp ugt i32 %148, 255
  br i1 %149, label %150, label %151

150:                                              ; preds = %144
  store i32 255, ptr %11, align 4
  br label %151

151:                                              ; preds = %150, %144
  br label %280

152:                                              ; preds = %74
  br label %153

153:                                              ; preds = %152
  call void @llvm.lifetime.start.p0(i64 2, ptr %22) #2
  %154 = load i32, ptr %5, align 4
  %155 = load i32, ptr %9, align 4
  %156 = mul i32 %154, %155
  %157 = trunc i32 %156 to i16
  store i16 %157, ptr %22, align 2
  %158 = load i16, ptr %22, align 2
  %159 = zext i16 %158 to i32
  %160 = add i32 %159, 1
  %161 = trunc i32 %160 to i16
  store i16 %161, ptr %22, align 2
  %162 = load i16, ptr %22, align 2
  %163 = zext i16 %162 to i32
  %164 = ashr i32 %163, 8
  %165 = load i16, ptr %22, align 2
  %166 = zext i16 %165 to i32
  %167 = add nsw i32 %166, %164
  %168 = trunc i32 %167 to i16
  store i16 %168, ptr %22, align 2
  %169 = load i16, ptr %22, align 2
  %170 = zext i16 %169 to i32
  %171 = ashr i32 %170, 8
  store i32 %171, ptr %9, align 4
  call void @llvm.lifetime.end.p0(i64 2, ptr %22) #2
  br label %172

172:                                              ; preds = %153
  br label %173

173:                                              ; preds = %172
  br label %174

174:                                              ; preds = %173
  call void @llvm.lifetime.start.p0(i64 2, ptr %23) #2
  %175 = load i32, ptr %6, align 4
  %176 = load i32, ptr %10, align 4
  %177 = mul i32 %175, %176
  %178 = trunc i32 %177 to i16
  store i16 %178, ptr %23, align 2
  %179 = load i16, ptr %23, align 2
  %180 = zext i16 %179 to i32
  %181 = add i32 %180, 1
  %182 = trunc i32 %181 to i16
  store i16 %182, ptr %23, align 2
  %183 = load i16, ptr %23, align 2
  %184 = zext i16 %183 to i32
  %185 = ashr i32 %184, 8
  %186 = load i16, ptr %23, align 2
  %187 = zext i16 %186 to i32
  %188 = add nsw i32 %187, %185
  %189 = trunc i32 %188 to i16
  store i16 %189, ptr %23, align 2
  %190 = load i16, ptr %23, align 2
  %191 = zext i16 %190 to i32
  %192 = ashr i32 %191, 8
  store i32 %192, ptr %10, align 4
  call void @llvm.lifetime.end.p0(i64 2, ptr %23) #2
  br label %193

193:                                              ; preds = %174
  br label %194

194:                                              ; preds = %193
  br label %195

195:                                              ; preds = %194
  call void @llvm.lifetime.start.p0(i64 2, ptr %24) #2
  %196 = load i32, ptr %7, align 4
  %197 = load i32, ptr %11, align 4
  %198 = mul i32 %196, %197
  %199 = trunc i32 %198 to i16
  store i16 %199, ptr %24, align 2
  %200 = load i16, ptr %24, align 2
  %201 = zext i16 %200 to i32
  %202 = add i32 %201, 1
  %203 = trunc i32 %202 to i16
  store i16 %203, ptr %24, align 2
  %204 = load i16, ptr %24, align 2
  %205 = zext i16 %204 to i32
  %206 = ashr i32 %205, 8
  %207 = load i16, ptr %24, align 2
  %208 = zext i16 %207 to i32
  %209 = add nsw i32 %208, %206
  %210 = trunc i32 %209 to i16
  store i16 %210, ptr %24, align 2
  %211 = load i16, ptr %24, align 2
  %212 = zext i16 %211 to i32
  %213 = ashr i32 %212, 8
  store i32 %213, ptr %11, align 4
  call void @llvm.lifetime.end.p0(i64 2, ptr %24) #2
  br label %214

214:                                              ; preds = %195
  br label %215

215:                                              ; preds = %214
  br label %280

216:                                              ; preds = %74
  br label %217

217:                                              ; preds = %216
  call void @llvm.lifetime.start.p0(i64 2, ptr %25) #2
  %218 = load i32, ptr %5, align 4
  %219 = load i32, ptr %9, align 4
  %220 = mul i32 %218, %219
  %221 = trunc i32 %220 to i16
  store i16 %221, ptr %25, align 2
  %222 = load i16, ptr %25, align 2
  %223 = zext i16 %222 to i32
  %224 = add i32 %223, 1
  %225 = trunc i32 %224 to i16
  store i16 %225, ptr %25, align 2
  %226 = load i16, ptr %25, align 2
  %227 = zext i16 %226 to i32
  %228 = ashr i32 %227, 8
  %229 = load i16, ptr %25, align 2
  %230 = zext i16 %229 to i32
  %231 = add nsw i32 %230, %228
  %232 = trunc i32 %231 to i16
  store i16 %232, ptr %25, align 2
  %233 = load i16, ptr %25, align 2
  %234 = zext i16 %233 to i32
  %235 = ashr i32 %234, 8
  store i32 %235, ptr %9, align 4
  call void @llvm.lifetime.end.p0(i64 2, ptr %25) #2
  br label %236

236:                                              ; preds = %217
  br label %237

237:                                              ; preds = %236
  br label %238

238:                                              ; preds = %237
  call void @llvm.lifetime.start.p0(i64 2, ptr %26) #2
  %239 = load i32, ptr %6, align 4
  %240 = load i32, ptr %10, align 4
  %241 = mul i32 %239, %240
  %242 = trunc i32 %241 to i16
  store i16 %242, ptr %26, align 2
  %243 = load i16, ptr %26, align 2
  %244 = zext i16 %243 to i32
  %245 = add i32 %244, 1
  %246 = trunc i32 %245 to i16
  store i16 %246, ptr %26, align 2
  %247 = load i16, ptr %26, align 2
  %248 = zext i16 %247 to i32
  %249 = ashr i32 %248, 8
  %250 = load i16, ptr %26, align 2
  %251 = zext i16 %250 to i32
  %252 = add nsw i32 %251, %249
  %253 = trunc i32 %252 to i16
  store i16 %253, ptr %26, align 2
  %254 = load i16, ptr %26, align 2
  %255 = zext i16 %254 to i32
  %256 = ashr i32 %255, 8
  store i32 %256, ptr %10, align 4
  call void @llvm.lifetime.end.p0(i64 2, ptr %26) #2
  br label %257

257:                                              ; preds = %238
  br label %258

258:                                              ; preds = %257
  br label %259

259:                                              ; preds = %258
  call void @llvm.lifetime.start.p0(i64 2, ptr %27) #2
  %260 = load i32, ptr %7, align 4
  %261 = load i32, ptr %11, align 4
  %262 = mul i32 %260, %261
  %263 = trunc i32 %262 to i16
  store i16 %263, ptr %27, align 2
  %264 = load i16, ptr %27, align 2
  %265 = zext i16 %264 to i32
  %266 = add i32 %265, 1
  %267 = trunc i32 %266 to i16
  store i16 %267, ptr %27, align 2
  %268 = load i16, ptr %27, align 2
  %269 = zext i16 %268 to i32
  %270 = ashr i32 %269, 8
  %271 = load i16, ptr %27, align 2
  %272 = zext i16 %271 to i32
  %273 = add nsw i32 %272, %270
  %274 = trunc i32 %273 to i16
  store i16 %274, ptr %27, align 2
  %275 = load i16, ptr %27, align 2
  %276 = zext i16 %275 to i32
  %277 = ashr i32 %276, 8
  store i32 %277, ptr %11, align 4
  call void @llvm.lifetime.end.p0(i64 2, ptr %27) #2
  br label %278

278:                                              ; preds = %259
  br label %279

279:                                              ; preds = %278
  br label %280

280:                                              ; preds = %74, %279, %215, %151, %126, %122
  %281 = load i32, ptr %12, align 4
  %282 = shl i32 %281, 24
  %283 = load i32, ptr %11, align 4
  %284 = shl i32 %283, 16
  %285 = or i32 %282, %284
  %286 = load i32, ptr %10, align 4
  %287 = shl i32 %286, 8
  %288 = or i32 %285, %287
  %289 = load i32, ptr %9, align 4
  %290 = or i32 %288, %289
  store i32 %290, ptr %8, align 4
  %291 = load i32, ptr %8, align 4
  %292 = load ptr, ptr %20, align 8
  store i32 %291, ptr %292, align 4
  %293 = load i64, ptr %18, align 8
  %294 = load i64, ptr %16, align 8
  %295 = add i64 %294, %293
  store i64 %295, ptr %16, align 8
  %296 = load ptr, ptr %20, align 8
  %297 = getelementptr inbounds nuw i32, ptr %296, i32 1
  store ptr %297, ptr %20, align 8
  br label %70, !llvm.loop !50

298:                                              ; preds = %70
  %299 = load i64, ptr %17, align 8
  %300 = load i64, ptr %15, align 8
  %301 = add i64 %300, %299
  store i64 %301, ptr %15, align 8
  %302 = load ptr, ptr %2, align 8
  %303 = getelementptr inbounds nuw %struct.SDL_BlitInfo, ptr %302, i32 0, i32 10
  %304 = load i32, ptr %303, align 8
  %305 = load ptr, ptr %2, align 8
  %306 = getelementptr inbounds nuw %struct.SDL_BlitInfo, ptr %305, i32 0, i32 7
  %307 = load ptr, ptr %306, align 8
  %308 = sext i32 %304 to i64
  %309 = getelementptr inbounds i8, ptr %307, i64 %308
  store ptr %309, ptr %306, align 8
  call void @llvm.lifetime.end.p0(i64 4, ptr %21) #2
  call void @llvm.lifetime.end.p0(i64 8, ptr %20) #2
  call void @llvm.lifetime.end.p0(i64 8, ptr %19) #2
  br label %53, !llvm.loop !51

310:                                              ; preds = %53
  call void @llvm.lifetime.end.p0(i64 8, ptr %18) #2
  call void @llvm.lifetime.end.p0(i64 8, ptr %17) #2
  call void @llvm.lifetime.end.p0(i64 8, ptr %16) #2
  call void @llvm.lifetime.end.p0(i64 8, ptr %15) #2
  call void @llvm.lifetime.end.p0(i64 8, ptr %14) #2
  call void @llvm.lifetime.end.p0(i64 8, ptr %13) #2
  call void @llvm.lifetime.end.p0(i64 4, ptr %12) #2
  call void @llvm.lifetime.end.p0(i64 4, ptr %11) #2
  call void @llvm.lifetime.end.p0(i64 4, ptr %10) #2
  call void @llvm.lifetime.end.p0(i64 4, ptr %9) #2
  call void @llvm.lifetime.end.p0(i64 4, ptr %8) #2
  call void @llvm.lifetime.end.p0(i64 4, ptr %7) #2
  call void @llvm.lifetime.end.p0(i64 4, ptr %6) #2
  call void @llvm.lifetime.end.p0(i64 4, ptr %5) #2
  call void @llvm.lifetime.end.p0(i64 4, ptr %4) #2
  call void @llvm.lifetime.end.p0(i64 4, ptr %3) #2
  ret void
}