; Function Attrs: nofree norecurse nosync nounwind memory(readwrite, inaccessiblemem: none) uwtable
define internal void @SDL_Blit_XRGB8888_ABGR8888_Blend_Scale(ptr noundef captures(none) %0) #0 {
  %2 = getelementptr inbounds nuw i8, ptr %0, i64 112
  %3 = load i32, ptr %2, align 8
  %4 = getelementptr inbounds nuw i8, ptr %0, i64 20
  %5 = load i32, ptr %4, align 4
  %6 = sext i32 %5 to i64
  %7 = shl nsw i64 %6, 16
  %8 = getelementptr inbounds nuw i8, ptr %0, i64 52
  %9 = load i32, ptr %8, align 4
  %10 = sext i32 %9 to i64
  %11 = udiv i64 %7, %10
  %12 = getelementptr inbounds nuw i8, ptr %0, i64 16
  %13 = load i32, ptr %12, align 8
  %14 = sext i32 %13 to i64
  %15 = shl nsw i64 %14, 16
  %16 = getelementptr inbounds nuw i8, ptr %0, i64 48
  %17 = load i32, ptr %16, align 8
  %18 = sext i32 %17 to i64
  %19 = udiv i64 %15, %18
  %20 = add nsw i32 %9, -1
  store i32 %20, ptr %8, align 4
  %.not103 = icmp eq i32 %9, 0
  br i1 %.not103, label %._crit_edge107, label %.lr.ph106

.lr.ph106:                                        ; preds = %1
  %21 = getelementptr inbounds nuw i8, ptr %0, i64 40
  %22 = lshr i64 %19, 1
  %23 = getelementptr inbounds nuw i8, ptr %0, i64 8
  %24 = getelementptr inbounds nuw i8, ptr %0, i64 24
  %25 = and i32 %3, 1008
  %26 = getelementptr inbounds nuw i8, ptr %0, i64 56
  %27 = icmp eq i32 %17, 0
  br i1 %27, label %.lr.ph106.split.us, label %.lr.ph106.split.preheader

.lr.ph106.split.preheader:                        ; preds = %.lr.ph106
  %28 = lshr i64 %11, 1
  %.pre = load ptr, ptr %21, align 8
  br label %.lr.ph106.split

.lr.ph106.split.us:                               ; preds = %.lr.ph106
  %29 = load i32, ptr %26, align 8
  %30 = sext i32 %29 to i64
  %.promoted = load ptr, ptr %21, align 8
  %31 = zext i32 %9 to i64
  %32 = mul nsw i64 %31, %30
  %scevgep = getelementptr i8, ptr %.promoted, i64 %32
  store ptr %scevgep, ptr %21, align 8
  store i32 -1, ptr %8, align 4
  br label %._crit_edge107

.lr.ph106.split:                                  ; preds = %.lr.ph106.split.preheader, %._crit_edge
  %33 = phi i32 [ %111, %._crit_edge ], [ %20, %.lr.ph106.split.preheader ]
  %34 = phi ptr [ %110, %._crit_edge ], [ %.pre, %.lr.ph106.split.preheader ]
  %.095104 = phi i64 [ %107, %._crit_edge ], [ %28, %.lr.ph106.split.preheader ]
  %35 = load i32, ptr %16, align 8
  %36 = lshr i64 %.095104, 16
  %.not99100 = icmp eq i32 %35, 0
  br i1 %.not99100, label %._crit_edge, label %.lr.ph

.lr.ph:                                           ; preds = %.lr.ph106.split, %96
  %.in = phi i32 [ %37, %96 ], [ %35, %.lr.ph106.split ]
  %.097102 = phi ptr [ %104, %96 ], [ %34, %.lr.ph106.split ]
  %.098101 = phi i64 [ %103, %96 ], [ %22, %.lr.ph106.split ]
  %37 = add nsw i32 %.in, -1
  %38 = load ptr, ptr %23, align 8
  %39 = load i32, ptr %24, align 8
  %40 = sext i32 %39 to i64
  %41 = mul i64 %36, %40
  %42 = getelementptr inbounds nuw i8, ptr %38, i64 %41
  %43 = lshr i64 %.098101, 14
  %44 = and i64 %43, 1125899906842620
  %45 = getelementptr inbounds nuw i8, ptr %42, i64 %44
  %46 = load i32, ptr %45, align 4
  %47 = lshr i32 %46, 16
  %48 = and i32 %47, 255
  %49 = lshr i32 %46, 8
  %50 = and i32 %49, 255
  %51 = and i32 %46, 255
  %52 = load i32, ptr %.097102, align 4
  %53 = lshr i32 %52, 16
  %54 = and i32 %53, 255
  %55 = lshr i32 %52, 8
  %56 = and i32 %55, 255
  %57 = and i32 %52, 255
  %58 = lshr i32 %52, 24
  switch i32 %25, label %96 [
    i32 16, label %59
    i32 32, label %59
    i32 64, label %60
    i32 128, label %60
    i32 256, label %64
    i32 512, label %80
  ]

59:                                               ; preds = %.lr.ph, %.lr.ph
  br label %96

60:                                               ; preds = %.lr.ph, %.lr.ph
  %61 = add nuw nsw i32 %48, %57
  %spec.store.select = tail call i32 @llvm.umin.i32(i32 %61, i32 255)
  %62 = add nuw nsw i32 %56, %50
  %spec.store.select2 = tail call i32 @llvm.umin.i32(i32 %62, i32 255)
  %63 = add nuw nsw i32 %54, %51
  %spec.store.select1 = tail call i32 @llvm.umin.i32(i32 %63, i32 255)
  br label %96

64:                                               ; preds = %.lr.ph
  %65 = mul nuw nsw i32 %48, %57
  %66 = add nuw nsw i32 %65, 1
  %67 = lshr i32 %66, 8
  %68 = add nuw nsw i32 %67, %66
  %69 = lshr i32 %68, 8
  %70 = mul nuw nsw i32 %56, %50
  %71 = add nuw nsw i32 %70, 1
  %72 = lshr i32 %71, 8
  %73 = add nuw nsw i32 %72, %71
  %74 = lshr i32 %73, 8
  %75 = mul nuw nsw i32 %54, %51
  %76 = add nuw nsw i32 %75, 1
  %77 = lshr i32 %76, 8
  %78 = add nuw nsw i32 %77, %76
  %79 = lshr i32 %78, 8
  br label %96

80:                                               ; preds = %.lr.ph
  %81 = mul nuw nsw i32 %48, %57
  %82 = add nuw nsw i32 %81, 1
  %83 = lshr i32 %82, 8
  %84 = add nuw nsw i32 %83, %82
  %85 = lshr i32 %84, 8
  %86 = mul nuw nsw i32 %56, %50
  %87 = add nuw nsw i32 %86, 1
  %88 = lshr i32 %87, 8
  %89 = add nuw nsw i32 %88, %87
  %90 = lshr i32 %89, 8
  %91 = mul nuw nsw i32 %54, %51
  %92 = add nuw nsw i32 %91, 1
  %93 = lshr i32 %92, 8
  %94 = add nuw nsw i32 %93, %92
  %95 = lshr i32 %94, 8
  br label %96

96:                                               ; preds = %80, %64, %60, %59, %.lr.ph
  %.094 = phi i32 [ %58, %.lr.ph ], [ %58, %80 ], [ %58, %64 ], [ %58, %60 ], [ 255, %59 ]
  %.093 = phi i32 [ %54, %.lr.ph ], [ %95, %80 ], [ %79, %64 ], [ %spec.store.select1, %60 ], [ %51, %59 ]
  %.092 = phi i32 [ %56, %.lr.ph ], [ %90, %80 ], [ %74, %64 ], [ %spec.store.select2, %60 ], [ %50, %59 ]
  %.0 = phi i32 [ %57, %.lr.ph ], [ %85, %80 ], [ %69, %64 ], [ %spec.store.select, %60 ], [ %48, %59 ]
  %97 = shl nuw i32 %.094, 24
  %98 = shl nuw nsw i32 %.093, 16
  %99 = add nuw nsw i32 %98, %97
  %100 = shl nuw nsw i32 %.092, 8
  %101 = add nuw nsw i32 %99, %100
  %102 = add nuw nsw i32 %101, %.0
  store i32 %102, ptr %.097102, align 4
  %103 = add i64 %.098101, %19
  %104 = getelementptr inbounds nuw i8, ptr %.097102, i64 4
  %.not99 = icmp eq i32 %37, 0
  br i1 %.not99, label %._crit_edge.loopexit, label %.lr.ph, !llvm.loop !51

._crit_edge.loopexit:                             ; preds = %96
  %.pre111 = load ptr, ptr %21, align 8
  %.pre112 = load i32, ptr %8, align 4
  br label %._crit_edge

._crit_edge:                                      ; preds = %._crit_edge.loopexit, %.lr.ph106.split
  %105 = phi i32 [ %.pre112, %._crit_edge.loopexit ], [ %33, %.lr.ph106.split ]
  %106 = phi ptr [ %.pre111, %._crit_edge.loopexit ], [ %34, %.lr.ph106.split ]
  %107 = add i64 %.095104, %11
  %108 = load i32, ptr %26, align 8
  %109 = sext i32 %108 to i64
  %110 = getelementptr inbounds i8, ptr %106, i64 %109
  store ptr %110, ptr %21, align 8
  %111 = add nsw i32 %105, -1
  store i32 %111, ptr %8, align 4
  %.not = icmp eq i32 %105, 0
  br i1 %.not, label %._crit_edge107, label %.lr.ph106.split, !llvm.loop !52

._crit_edge107:                                   ; preds = %._crit_edge, %.lr.ph106.split.us, %1
  ret void
}